; Function Attrs: mustprogress uwtable
define void @_ZN16WirelessTimeline10wheelEventEP11QWheelEvent(ptr noundef nonnull align 8 dereferenceable(896) %0, ptr nocapture noundef readonly %1) unnamed_addr #0 align 2 personality ptr @__gxx_personality_v0 {
  %3 = getelementptr inbounds i8, ptr %1, i64 88
  %.sroa.0.0.copyload.i = load i64, ptr %3, align 8
  %.sroa.1.0.extract.shift = lshr i64 %.sroa.0.0.copyload.i, 32
  %.sroa.1.0.extract.trunc = trunc i64 %.sroa.1.0.extract.shift to i32
  %4 = sitofp i32 %.sroa.1.0.extract.trunc to double
  %5 = fdiv double %4, 1.200000e+02
  %6 = fcmp une double %5, 0.000000e+00
  br i1 %6, label %7, label %74

7:                                                ; preds = %2
  %8 = getelementptr inbounds i8, ptr %0, i64 40
  %9 = load double, ptr %8, align 8
  %10 = fadd double %5, %9
  %11 = fcmp olt double %10, 0.000000e+00
  %storemerge = select i1 %11, double 0.000000e+00, double %10
  %12 = fcmp ogt double %storemerge, 2.500000e+01
  %storemerge5 = select i1 %12, double 2.500000e+01, double %storemerge
  store double %storemerge5, ptr %8, align 8
  %13 = getelementptr inbounds i8, ptr %1, i64 48
  %14 = load ptr, ptr %13, align 8
  %15 = tail call { double, double } @_ZNK11QEventPoint8positionEv(ptr noundef nonnull align 8 dereferenceable(8) %14)
  %16 = extractvalue { double, double } %15, 0
  %17 = getelementptr inbounds i8, ptr %0, i64 32
  %18 = load ptr, ptr %17, align 8
  %19 = getelementptr inbounds i8, ptr %18, i64 20
  %20 = getelementptr inbounds i8, ptr %18, i64 28
  %21 = load i32, ptr %20, align 4
  %22 = load i32, ptr %19, align 4
  %23 = add i32 %21, 1
  %24 = sub i32 %23, %22
  %25 = sitofp i32 %24 to double
  %26 = fdiv double %16, %25
  %27 = getelementptr inbounds i8, ptr %0, i64 872
  %28 = load ptr, ptr %27, align 8
  %29 = getelementptr inbounds i8, ptr %28, i64 24
  %30 = load i64, ptr %29, align 8
  %31 = getelementptr inbounds i8, ptr %0, i64 864
  %32 = load ptr, ptr %31, align 8
  %33 = getelementptr inbounds i8, ptr %32, i64 16
  %34 = load i64, ptr %33, align 8
  %35 = sub i64 %30, %34
  %36 = getelementptr inbounds i8, ptr %0, i64 840
  %37 = load i64, ptr %36, align 8
  %38 = uitofp i64 %37 to double
  %39 = getelementptr inbounds i8, ptr %0, i64 848
  %40 = load i64, ptr %39, align 8
  %41 = sub i64 %40, %37
  %42 = uitofp i64 %41 to double
  %43 = tail call double @llvm.fmuladd.f64(double %26, double %42, double %38)
  %44 = fptoui double %43 to i64
  %45 = uitofp i64 %35 to double
  %46 = load double, ptr %8, align 8
  %47 = fdiv double %46, 2.500000e+01
  %48 = fsub double 1.000000e+00, %47
  %49 = tail call double @pow(double noundef %45, double noundef %48) #18
  %50 = fptoui double %49 to i64
  %51 = uitofp i64 %44 to double
  %52 = uitofp i64 %50 to double
  %53 = fneg double %52
  %54 = tail call double @llvm.fmuladd.f64(double %53, double %26, double %51)
  %55 = fptoui double %54 to i64
  store i64 %55, ptr %36, align 8
  %56 = fsub double 1.000000e+00, %26
  %57 = tail call double @llvm.fmuladd.f64(double %52, double %56, double %51)
  %58 = fptoui double %57 to i64
  store i64 %58, ptr %39, align 8
  %59 = load ptr, ptr %31, align 8
  %60 = getelementptr inbounds i8, ptr %59, i64 16
  %61 = load i64, ptr %60, align 8
  %62 = icmp sgt i64 %61, %55
  br i1 %62, label %63, label %._crit_edge.i.i

63:                                               ; preds = %7
  %64 = sub i64 %61, %55
  store i64 %61, ptr %36, align 8
  %65 = add i64 %64, %58
  store i64 %65, ptr %39, align 8
  br label %._crit_edge.i.i

._crit_edge.i.i:                                  ; preds = %63, %7
  %66 = phi i64 [ %61, %63 ], [ %55, %7 ]
  %67 = phi i64 [ %65, %63 ], [ %58, %7 ]
  %68 = load ptr, ptr %27, align 8
  %69 = getelementptr inbounds i8, ptr %68, i64 24
  %70 = load i64, ptr %69, align 8
  %71 = icmp ugt i64 %67, %70
  br i1 %71, label %72, label %_ZN16WirelessTimeline4zoomEd.exit

72:                                               ; preds = %._crit_edge.i.i
  %.neg.i.i = sub i64 %66, %67
  %73 = add i64 %.neg.i.i, %70
  store i64 %73, ptr %36, align 8
  store i64 %70, ptr %39, align 8
  br label %_ZN16WirelessTimeline4zoomEd.exit

_ZN16WirelessTimeline4zoomEd.exit:                ; preds = %._crit_edge.i.i, %72
  tail call void @_ZN7QWidget6updateEv(ptr noundef nonnull align 8 dereferenceable(40) %0)
  br label %74

74:                                               ; preds = %_ZN16WirelessTimeline4zoomEd.exit, %2
  ret void
}